ccollections
OrderedDict
p0
((lp1
(lp2
S'ALLEN PHILLIP K'
p3
a(dp4
S'to_messages'
p5
I2902
sS'deferral_payments'
p6
I2869717
sS'expenses'
p7
I13868
sS'poi'
p8
I00
sS'deferred_income'
p9
I-3081055
sS'email_address'
p10
S'phillip.allen@enron.com'
p11
sS'long_term_incentive'
p12
I304805
sS'fraction_from_poi'
p13
F0.016195727084769126
sS'restricted_stock_deferred'
p14
I-126027
sS'shared_receipt_with_poi'
p15
I1407
sS'loan_advances'
p16
S'NaN'
p17
sS'from_messages'
p18
I2195
sS'other'
p19
I152
sS'director_fees'
p20
g17
sS'bonus'
p21
I4175000
sS'total_stock_value'
p22
I1729541
sS'from_poi_to_this_person'
p23
I47
sS'from_this_person_to_poi'
p24
I65
sS'restricted_stock'
p25
I126027
sS'salary'
p26
I201955
sS'total_payments'
p27
I4484442
sS'fraction_to_poi'
p28
F0.029612756264236904
sS'exercised_stock_options'
p29
I1729541
saa(lp30
S'BADUM JAMES P'
p31
a(dp32
g5
g17
sg6
I178980
sg7
I3486
sg8
I00
sg9
g17
sg10
g17
sg12
g17
sg13
F0.0
sg14
g17
sg15
g17
sg16
g17
sg18
g17
sg19
g17
sg20
g17
sg21
g17
sg22
I257817
sg23
g17
sg24
g17
sg25
g17
sg26
g17
sg27
I182466
sg28
F0.0
sg29
I257817
saa(lp33
S'BANNANTINE JAMES M'
p34
a(dp35
g5
I566
sg6
g17
sg7
I56301
sg8
I00
sg9
I-5104
sg10
S'james.bannantine@enron.com'
p36
sg12
g17
sg13
F0.06890459363957598
sg14
I-560222
sg15
I465
sg16
g17
sg18
I29
sg19
I864523
sg20
g17
sg21
g17
sg22
I5243487
sg23
I39
sg24
I0
sg25
I1757552
sg26
I477
sg27
I916197
sg28
F0.0
sg29
I4046157
saa(lp37
S'BAXTER JOHN C'
p38
a(dp39
g5
g17
sg6
I1295738
sg7
I11200
sg8
I00
sg9
I-1386055
sg10
g17
sg12
I1586055
sg13
F0.0
sg14
g17
sg15
g17
sg16
g17
sg18
g17
sg19
I2660303
sg20
g17
sg21
I1200000
sg22
I10623258
sg23
g17
sg24
g17
sg25
I3942714
sg26
I267102
sg27
I5634343
sg28
F0.0
sg29
I6680544
saa(lp40
S'BAY FRANKLIN R'
p41
a(dp42
g5
g17
sg6
I260455
sg7
I129142
sg8
I00
sg9
I-201641
sg10
S'frank.bay@enron.com'
p43
sg12
g17
sg13
F0.0
sg14
I-82782
sg15
g17
sg16
g17
sg18
g17
sg19
I69
sg20
g17
sg21
I400000
sg22
I63014
sg23
g17
sg24
g17
sg25
I145796
sg26
I239671
sg27
I827696
sg28
F0.0
sg29
g17
saa(lp44
S'BAZELIDES PHILIP J'
p45
a(dp46
g5
g17
sg6
I684694
sg7
g17
sg8
I00
sg9
g17
sg10
g17
sg12
I93750
sg13
F0.0
sg14
g17
sg15
g17
sg16
g17
sg18
g17
sg19
I874
sg20
g17
sg21
g17
sg22
I1599641
sg23
g17
sg24
g17
sg25
g17
sg26
I80818
sg27
I860136
sg28
F0.0
sg29
I1599641
saa(lp47
S'BECK SALLY W'
p48
a(dp49
g5
I7315
sg6
g17
sg7
I37172
sg8
I00
sg9
g17
sg10
S'sally.beck@enron.com'
p50
sg12
g17
sg13
F0.01968557758031442
sg14
g17
sg15
I2639
sg16
g17
sg18
I4343
sg19
I566
sg20
g17
sg21
I700000
sg22
I126027
sg23
I144
sg24
I386
sg25
I126027
sg26
I231330
sg27
I969068
sg28
F0.08887865530739121
sg29
g17
saa(lp51
S'BELDEN TIMOTHY N'
p52
a(dp53
g5
I7991
sg6
I2144013
sg7
I17355
sg8
I01
sg9
I-2334434
sg10
S'tim.belden@enron.com'
p54
sg12
g17
sg13
F0.028532098610937303
sg14
g17
sg15
I5521
sg16
g17
sg18
I484
sg19
I210698
sg20
g17
sg21
I5249999
sg22
I1110705
sg23
I228
sg24
I108
sg25
I157569
sg26
I213999
sg27
I5501630
sg28
F0.2231404958677686
sg29
I953136
saa(lp55
S'BELFER ROBERT'
p56
a(dp57
g5
g17
sg6
S'NaN'
p58
sg7
I3285
sg8
I00
sg9
I-102500
sg10
g17
sg12
g58
sg13
F0.0
sg14
I-44093
sg15
g17
sg16
g58
sg18
g17
sg19
g58
sg20
I102500
sg21
g58
sg22
g58
sg23
g17
sg24
g17
sg25
I44093
sg26
g58
sg27
I3285
sg28
F0.0
sg29
g58
saa(lp59
S'BERBERIAN DAVID'
p60
a(dp61
g5
g17
sg6
g17
sg7
I11892
sg8
I00
sg9
g17
sg10
S'david.berberian@enron.com'
p62
sg12
g17
sg13
F0.0
sg14
g17
sg15
g17
sg16
g17
sg18
g17
sg19
g17
sg20
g17
sg21
g17
sg22
I2493616
sg23
g17
sg24
g17
sg25
I869220
sg26
I216582
sg27
I228474
sg28
F0.0
sg29
I1624396
saa(lp63
S'BERGSIEKER RICHARD P'
p64
a(dp65
g5
I383
sg6
g17
sg7
I59175
sg8
I00
sg9
I-485813
sg10
S'rick.bergsieker@enron.com'
p66
sg12
I180250
sg13
F0.010443864229765013
sg14
g17
sg15
I233
sg16
g17
sg18
I59
sg19
I427316
sg20
g17
sg21
I250000
sg22
I659249
sg23
I4
sg24
I0
sg25
I659249
sg26
I187922
sg27
I618850
sg28
F0.0
sg29
g17
saa(lp67
S'BHATNAGAR SANJAY'
p68
a(dp69
g5
I523
sg6
g58
sg7
I137864
sg8
I00
sg9
g58
sg10
S'sanjay.bhatnagar@enron.com'
p70
sg12
g58
sg13
F0.0
sg14
I-2604490
sg15
I463
sg16
g58
sg18
I29
sg19
g58
sg20
g58
sg21
g58
sS'total_stock_value'
p71
I15456290
sg23
I0
sg24
I1
sg25
I2604490
sg26
g58
sg27
I137864
sg28
F0.034482758620689655
sg29
I15456290
saa(lp72
S'BIBI PHILIPPE A'
p73
a(dp74
g5
I1607
sg6
g17
sg7
I38559
sg8
I00
sg9
g17
sg10
S'philippe.bibi@enron.com'
p75
sg12
I369721
sg13
F0.01431238332296204
sg14
g17
sg15
I1336
sg16
g17
sg18
I40
sg19
I425688
sg20
g17
sg21
I1000000
sg22
I1843816
sg23
I23
sg24
I8
sg25
I378082
sg26
I213625
sg27
I2047593
sg28
F0.2
sg29
I1465734
saa(lp76
S'BLACHMAN JEREMY M'
p77
a(dp78
g5
I2475
sg6
g17
sg7
I84208
sg8
I00
sg9
g17
sg10
S'jeremy.blachman@enron.com'
p79
sg12
I831809
sg13
F0.010101010101010102
sg14
g17
sg15
I2326
sg16
g17
sg18
I14
sg19
I272
sg20
g17
sg21
I850000
sg22
I954354
sg23
I25
sg24
I2
sg25
I189041
sg26
I248546
sg27
I2014835
sg28
F0.14285714285714285
sg29
I765313
saa(lp80
S'BLAKE JR. NORMAN P'
p81
a(dp82
g5
g17
sg6
g17
sg7
I1279
sg8
I00
sg9
I-113784
sg10
g17
sg12
g17
sg13
F0.0
sg14
g17
sg15
g17
sg16
g17
sg18
g17
sg19
g17
sg20
I113784
sg21
g17
sg22
g17
sg23
g17
sg24
g17
sg25
g17
sg26
g17
sg27
I1279
sg28
F0.0
sg29
g17
saa(lp83
S'BOWEN JR RAYMOND M'
p84
a(dp85
g5
I1858
sg6
g17
sg7
I65907
sg8
I01
sg9
I-833
sg10
S'raymond.bowen@enron.com'
p86
sg12
I974293
sg13
F0.07534983853606028
sg14
g17
sg15
I1593
sg16
g17
sg18
I27
sg19
I1621
sg20
g17
sg21
I1350000
sg22
I252055
sg23
I140
sg24
I15
sg25
I252055
sg26
I278601
sg27
I2669589
sg28
F0.5555555555555556
sg29
g17
saa(lp87
S'BROWN MICHAEL'
p88
a(dp89
g5
I1486
sg6
g17
sg7
I49288
sg8
I00
sg9
g17
sg10
S'michael.brown@enron.com'
p90
sg12
g17
sg13
F0.008748317631224764
sg14
g17
sg15
I761
sg16
g17
sg18
I41
sg19
g17
sg20
g17
sg21
g17
sg22
g17
sg23
I13
sg24
I1
sg25
g17
sg26
g17
sg27
I49288
sg28
F0.024390243902439025
sg29
g17
saa(lp91
S'BUCHANAN HAROLD G'
p92
a(dp93
g5
I1088
sg6
g17
sg7
I600
sg8
I00
sg9
g17
sg10
S'john.buchanan@enron.com'
p94
sg12
I304805
sg13
F0.0
sg14
g17
sg15
I23
sg16
g17
sg18
I125
sg19
I1215
sg20
g17
sg21
I500000
sg22
I1014505
sg23
I0
sg24
I0
sg25
I189041
sg26
I248017
sg27
I1054637
sg28
F0.0
sg29
I825464
saa(lp95
S'BUTTS ROBERT H'
p96
a(dp97
g5
g17
sg6
g17
sg7
I9410
sg8
I00
sg9
I-75000
sg10
S'bob.butts@enron.com'
p98
sg12
I175000
sg13
F0.0
sg14
g17
sg15
g17
sg16
g17
sg18
g17
sg19
I150656
sg20
g17
sg21
I750000
sg22
I417619
sg23
g17
sg24
g17
sg25
I417619
sg26
I261516
sg27
I1271582
sg28
F0.0
sg29
g17
saa(lp99
S'BUY RICHARD B'
p100
a(dp101
g5
I3523
sg6
I649584
sg7
g17
sg8
I00
sg9
I-694862
sg10
S'rick.buy@enron.com'
p102
sg12
I769862
sg13
F0.04428044280442804
sg14
g17
sg15
I2333
sg16
g17
sg18
I1053
sg19
I400572
sg20
g17
sg21
I900000
sg22
I3444470
sg23
I156
sg24
I71
sg25
I901657
sg26
I330546
sg27
I2355702
sg28
F0.06742640075973409
sg29
I2542813
saa(lp103
S'CALGER CHRISTOPHER F'
p104
a(dp105
g5
I2598
sg6
g17
sg7
I35818
sg8
I01
sg9
I-262500
sg10
S'christopher.calger@enron.com'
p106
sg12
I375304
sg13
F0.07659738260200154
sg14
g17
sg15
I2188
sg16
g17
sg18
I144
sg19
I486
sg20
g17
sg21
I1250000
sg22
I126027
sg23
I199
sg24
I25
sg25
I126027
sg26
I240189
sg27
I1639297
sg28
F0.1736111111111111
sg29
g17
saa(lp107
S'CARTER REBECCA C'
p108
a(dp109
g5
I312
sg6
g17
sg7
g17
sg8
I00
sg9
I-159792
sg10
S'rebecca.carter@enron.com'
p110
sg12
I75000
sg13
F0.09294871794871795
sg14
I-307301
sg15
I196
sg16
g17
sg18
I15
sg19
I540
sg20
g17
sg21
I300000
sg22
g17
sg23
I29
sg24
I7
sg25
I307301
sg26
I261809
sg27
I477557
sg28
F0.4666666666666667
sg29
g17
saa(lp111
S'CAUSEY RICHARD A'
p112
a(dp113
g5
I1892
sg6
g17
sg7
I30674
sg8
I01
sg9
I-235000
sg10
S'richard.causey@enron.com'
p114
sg12
I350000
sg13
F0.0306553911205074
sg14
g17
sg15
I1585
sg16
g17
sg18
I49
sg19
I307895
sg20
g17
sg21
I1000000
sg22
I2502063
sg23
I58
sg24
I12
sg25
I2502063
sg26
I415189
sg27
I1868758
sg28
F0.24489795918367346
sg29
g17
saa(lp115
S'CHAN RONNIE'
p116
a(dp117
g5
g17
sg6
g17
sg7
g17
sg8
I00
sg9
I-98784
sg10
g17
sg12
g17
sg13
F0.0
sg14
I-32460
sg15
g17
sg16
g17
sg18
g17
sg19
g17
sg20
I98784
sg21
g17
sg22
g17
sg23
g17
sg24
g17
sg25
I32460
sg26
g17
sg27
g17
sg28
F0.0
sg29
g17
saa(lp118
S'CHRISTODOULOU DIOMEDES'
p119
a(dp120
g5
g17
sg6
g17
sg7
g17
sg8
I00
sg9
g17
sg10
S'diomedes.christodoulou@enron.com'
p121
sg12
g17
sg13
F0.0
sg14
g17
sg15
g17
sg16
g17
sg18
g17
sg19
g17
sg20
g17
sg21
g17
sg22
I6077885
sg23
g17
sg24
g17
sg25
I950730
sg26
g17
sg27
g17
sg28
F0.0
sg29
I5127155
saa(lp122
S'CLINE KENNETH W'
p123
a(dp124
g5
g17
sg6
g17
sg7
g17
sg8
I00
sg9
g17
sg10
g17
sg12
g17
sg13
F0.0
sg14
I-472568
sg15
g17
sg16
g17
sg18
g17
sg19
g17
sg20
g17
sg21
g17
sg22
I189518
sg23
g17
sg24
g17
sg25
I662086
sg26
g17
sg27
g17
sg28
F0.0
sg29
g17
saa(lp125
S'COLWELL WESLEY'
p126
a(dp127
g5
I1758
sg6
I27610
sg7
I16514
sg8
I01
sg9
I-144062
sg10
S'wes.colwell@enron.com'
p128
sg12
g17
sg13
F0.13651877133105803
sg14
g17
sg15
I1132
sg16
g17
sg18
I40
sg19
I101740
sg20
g17
sg21
I1200000
sg22
I698242
sg23
I240
sg24
I11
sg25
I698242
sg26
I288542
sg27
I1490344
sg28
F0.275
sg29
g17
saa(lp129
S'CORDES WILLIAM R'
p130
a(dp131
g5
I764
sg6
g17
sg7
g17
sg8
I00
sg9
g17
sg10
S'bill.cordes@enron.com'
p132
sg12
g17
sg13
F0.013089005235602094
sg14
g17
sg15
I58
sg16
g17
sg18
I12
sg19
g17
sg20
g17
sg21
g17
sg22
I1038185
sg23
I10
sg24
I0
sg25
I386335
sg26
g17
sg27
g17
sg28
F0.0
sg29
I651850
saa(lp133
S'COX DAVID'
p134
a(dp135
g5
I102
sg6
g17
sg7
I27861
sg8
I00
sg9
I-41250
sg10
S'chip.cox@enron.com'
p136
sg12
g17
sg13
F0.0
sg14
g17
sg15
I71
sg16
g17
sg18
I33
sg19
I494
sg20
g17
sg21
I800000
sg22
I495633
sg23
I0
sg24
I4
sg25
I378082
sg26
I314288
sg27
I1101393
sg28
F0.12121212121212122
sg29
I117551
saa(lp137
S'CUMBERLAND MICHAEL S'
p138
a(dp139
g5
g17
sg6
g17
sg7
I22344
sg8
I00
sg9
g17
sg10
g17
sg12
I275000
sg13
F0.0
sg14
g17
sg15
g17
sg16
g17
sg18
g17
sg19
I713
sg20
g17
sg21
I325000
sg22
I207940
sg23
g17
sg24
g17
sg25
I207940
sg26
I184899
sg27
I807956
sg28
F0.0
sg29
g17
saa(lp140
S'DEFFNER JOSEPH M'
p141
a(dp142
g5
I714
sg6
g17
sg7
I41626
sg8
I00
sg9
g17
sg10
S'joseph.deffner@enron.com'
p143
sg12
I335349
sg13
F0.16106442577030813
sg14
g17
sg15
I552
sg16
g17
sg18
I74
sg19
I25553
sg20
g17
sg21
I600000
sg22
I159211
sg23
I115
sg24
I4
sg25
I141833
sg26
I206121
sg27
I1208649
sg28
F0.05405405405405406
sg29
I17378
saa(lp144
S'DELAINEY DAVID W'
p145
a(dp146
g5
I3093
sg6
g17
sg7
I86174
sg8
I01
sg9
g17
sg10
S'david.delainey@enron.com'
p147
sg12
I1294981
sg13
F0.02133850630455868
sg14
g17
sg15
I2097
sg16
g17
sg18
I3069
sg19
I1661
sg20
g17
sg21
I3000000
sg22
I3614261
sg23
I66
sg24
I609
sg25
I1323148
sg26
I365163
sg27
I4747979
sg28
F0.198435972629521
sg29
I2291113
saa(lp148
S'DERRICK JR. JAMES V'
p149
a(dp150
g5
I2181
sg6
g17
sg7
I51124
sg8
I00
sg9
I-1284000
sg10
S'james.derrick@enron.com'
p151
sg12
I484000
sg13
F0.029344337459880788
sg14
I-1787380
sg15
I1401
sg16
g17
sg18
I909
sg19
I7482
sg20
g17
sg21
I800000
sg22
I8831913
sg23
I64
sg24
I20
sg25
I1787380
sg26
I492375
sg27
I550981
sg28
F0.022002200220022004
sg29
I8831913
saa(lp152
S'DETMERING TIMOTHY J'
p153
a(dp154
g5
g17
sg6
I875307
sg7
I52255
sg8
I00
sg9
I-775241
sg10
S'timothy.detmering@enron.com'
p155
sg12
I415657
sg13
F0.0
sg14
I-315068
sg15
g17
sg16
g17
sg18
g17
sg19
I1105
sg20
g17
sg21
I425000
sg22
I2027865
sg23
g17
sg24
g17
sg25
I315068
sg26
I210500
sg27
I1204583
sg28
F0.0
sg29
I2027865
saa(lp156
S'DIETRICH JANET R'
p157
a(dp158
g5
I2572
sg6
g17
sg7
I3475
sg8
I00
sg9
g17
sg10
S'janet.dietrich@enron.com'
p159
sg12
I556416
sg13
F0.11858475894245724
sg14
g17
sg15
I1902
sg16
g17
sg18
I63
sg19
I473
sg20
g17
sg21
I600000
sg22
I1865087
sg23
I305
sg24
I14
sg25
I315068
sg26
I250100
sg27
I1410464
sg28
F0.2222222222222222
sg29
I1550019
saa(lp160
S'DIMICHELE RICHARD G'
p161
a(dp162
g5
g17
sg6
g17
sg7
I35812
sg8
I00
sg9
g17
sg10
S'richard.dimichele@enron.com'
p163
sg12
I694862
sg13
F0.0
sg14
g17
sg15
g17
sg16
g17
sg18
g17
sg19
I374689
sg20
g17
sg21
I1000000
sg22
I8317782
sg23
g17
sg24
g17
sg25
I126027
sg26
I262788
sg27
I2368151
sg28
F0.0
sg29
I8191755
saa(lp164
S'DODSON KEITH'
p165
a(dp166
g5
I176
sg6
g17
sg7
I28164
sg8
I00
sg9
g17
sg10
S'keith.dodson@enron.com'
p167
sg12
g17
sg13
F0.056818181818181816
sg14
g17
sg15
I114
sg16
g17
sg18
I14
sg19
I774
sg20
g17
sg21
I70000
sg22
g17
sg23
I10
sg24
I3
sg25
g17
sg26
I221003
sg27
I319941
sg28
F0.21428571428571427
sg29
g17
saa(lp168
S'DONAHUE JR JEFFREY M'
p169
a(dp170
g5
I865
sg6
g17
sg7
I96268
sg8
I00
sg9
I-300000
sg10
S'jeff.donahue@enron.com'
p171
sg12
g17
sg13
F0.21734104046242775
sg14
g17
sg15
I772
sg16
g17
sg18
I22
sg19
I891
sg20
g17
sg21
I800000
sg22
I1080988
sg23
I188
sg24
I11
sg25
I315068
sg26
I278601
sg27
I875760
sg28
F0.5
sg29
I765920
saa(lp172
S'DUNCAN JOHN H'
p173
a(dp174
g5
g17
sg6
g17
sg7
g17
sg8
I00
sg9
I-25000
sg10
g17
sg12
g17
sg13
F0.0
sg14
g17
sg15
g17
sg16
g17
sg18
g17
sg19
g17
sg20
I102492
sg21
g17
sg22
I371750
sg23
g17
sg24
g17
sg25
g17
sg26
g17
sg27
I77492
sg28
F0.0
sg29
I371750
saa(lp175
S'DURAN WILLIAM D'
p176
a(dp177
g5
I904
sg6
g17
sg7
I25785
sg8
I00
sg9
g17
sg10
S'w.duran@enron.com'
p178
sg12
I1105218
sg13
F0.1172566371681416
sg14
g17
sg15
I599
sg16
g17
sg18
I12
sg19
I1568
sg20
g17
sg21
I750000
sg22
I1640910
sg23
I106
sg24
I3
sg25
I189041
sg26
I210692
sg27
I2093263
sg28
F0.25
sg29
I1451869
saa(lp179
S'ECHOLS JOHN B'
p180
a(dp181
g5
g17
sg6
g17
sg7
I21530
sg8
I00
sg9
g17
sg10
S'john.echols@enron.com'
p182
sg12
I2234774
sg13
F0.0
sg14
g17
sg15
g17
sg16
g17
sg18
g17
sg19
I53775
sg20
g17
sg21
I200000
sg22
I1008941
sg23
g17
sg24
g17
sg25
I407503
sg26
I182245
sg27
I2692324
sg28
F0.0
sg29
I601438
saa(lp183
S'ELLIOTT STEVEN'
p184
a(dp185
g5
g17
sg6
g17
sg7
I78552
sg8
I00
sg9
I-400729
sg10
S'steven.elliott@enron.com'
p186
sg12
g17
sg13
F0.0
sg14
g17
sg15
g17
sg16
g17
sg18
g17
sg19
I12961
sg20
g17
sg21
I350000
sg22
I6678735
sg23
g17
sg24
g17
sg25
I1788391
sg26
I170941
sg27
I211725
sg28
F0.0
sg29
I4890344
saa(lp187
S'FALLON JAMES B'
p188
a(dp189
g5
I1755
sg6
g17
sg7
I95924
sg8
I00
sg9
g17
sg10
S'jim.fallon@enron.com'
p190
sg12
I374347
sg13
F0.023931623931623933
sg14
g17
sg15
I1604
sg16
g17
sg18
I75
sg19
I401481
sg20
g17
sg21
I2500000
sg22
I2332399
sg23
I42
sg24
I37
sg25
I1392142
sg26
I304588
sg27
I3676340
sg28
F0.49333333333333335
sg29
I940257
saa(lp191
S'FASTOW ANDREW S'
p192
a(dp193
g5
g17
sg6
g17
sg7
I55921
sg8
I01
sg9
I-1386055
sg10
S'andrew.fastow@enron.com'
p194
sg12
I1736055
sg13
F0.0
sg14
g17
sg15
g17
sg16
g17
sg18
g17
sg19
I277464
sg20
g17
sg21
I1300000
sg22
I1794412
sg23
g17
sg24
g17
sg25
I1794412
sg26
I440698
sg27
I2424083
sg28
F0.0
sg29
g17
saa(lp195
S'FITZGERALD JAY L'
p196
a(dp197
g5
I936
sg6
g17
sg7
I23870
sg8
I00
sg9
g17
sg10
S'jay.fitzgerald@enron.com'
p198
sg12
I556416
sg13
F0.0010683760683760685
sg14
g17
sg15
I723
sg16
g17
sg18
I16
sg19
I285414
sg20
g17
sg21
I350000
sg22
I1621236
sg23
I1
sg24
I8
sg25
I956775
sg26
I199157
sg27
I1414857
sg28
F0.5
sg29
I664461
saa(lp199
S'FOWLER PEGGY'
p200
a(dp201
g5
I517
sg6
g17
sg7
g17
sg8
I00
sg9
g17
sg10
S'kulvinder.fowler@enron.com'
p202
sg12
g17
sg13
F0.0
sg14
g17
sg15
I10
sg16
g17
sg18
I36
sg19
g17
sg20
g17
sg21
g17
sg22
I1884748
sg23
I0
sg24
I0
sg25
I560170
sg26
g17
sg27
g17
sg28
F0.0
sg29
I1324578
saa(lp203
S'FOY JOE'
p204
a(dp205
g5
I57
sg6
I181755
sg7
g17
sg8
I00
sg9
g17
sg10
S'tracy.foy@enron.com'
p206
sg12
g17
sg13
F0.0
sg14
g17
sg15
I2
sg16
g17
sg18
I13
sg19
g17
sg20
g17
sg21
g17
sg22
I343434
sg23
I0
sg24
I0
sg25
g17
sg26
g17
sg27
I181755
sg28
F0.0
sg29
I343434
saa(lp207
S'FREVERT MARK A'
p208
a(dp209
g5
I3275
sg6
I6426990
sg7
I86987
sg8
I00
sg9
I-3367011
sg10
S'mark.frevert@enron.com'
p210
sg12
I1617011
sg13
F0.07389312977099237
sg14
g17
sg15
I2979
sg16
I2000000
sg18
I21
sg19
I7427621
sg20
g17
sg21
I2000000
sg22
I14622185
sg23
I242
sg24
I6
sg25
I4188667
sg26
I1060932
sg27
I17252530
sg28
F0.2857142857142857
sg29
I10433518
saa(lp211
S'FUGH JOHN L'
p212
a(dp213
g5
g17
sg6
I50591
sg7
g17
sg8
I00
sg9
g17
sg10
g17
sg12
g17
sg13
F0.0
sg14
g17
sg15
g17
sg16
g17
sg18
g17
sg19
g17
sg20
g17
sg21
g17
sg22
I176378
sg23
g17
sg24
g17
sg25
g17
sg26
g17
sg27
I50591
sg28
F0.0
sg29
I176378
saa(lp214
S'GAHN ROBERT S'
p215
a(dp216
g5
g17
sg6
I73122
sg7
I50080
sg8
I00
sg9
I-1042
sg10
g17
sg12
g17
sg13
F0.0
sg14
g17
sg15
g17
sg16
g17
sg18
g17
sg19
I76547
sg20
g17
sg21
I509870
sg22
I318607
sg23
g17
sg24
g17
sg25
I235370
sg26
I192008
sg27
I900585
sg28
F0.0
sg29
I83237
saa(lp217
S'GARLAND C KEVIN'
p218
a(dp219
g5
I209
sg6
g17
sg7
I48405
sg8
I00
sg9
g17
sg10
S'kevin.garland@enron.com'
p220
sg12
I375304
sg13
F0.04784688995215311
sg14
g17
sg15
I178
sg16
g17
sg18
I44
sg19
I60814
sg20
g17
sg21
I850000
sg22
I896153
sg23
I10
sg24
I27
sg25
I259907
sg26
I231946
sg27
I1566469
sg28
F0.6136363636363636
sg29
I636246
saa(lp221
S'GATHMANN WILLIAM D'
p222
a(dp223
g5
g17
sg6
g17
sg7
g17
sg8
I00
sg9
g17
sg10
g17
sg12
g17
sg13
F0.0
sg14
I-72419
sg15
g17
sg16
g17
sg18
g17
sg19
g17
sg20
g17
sg21
g17
sg22
I1945360
sg23
g17
sg24
g17
sg25
I264013
sg26
g17
sg27
g17
sg28
F0.0
sg29
I1753766
saa(lp224
S'GIBBS DANA R'
p225
a(dp226
g5
I169
sg6
I504610
sg7
g17
sg8
I00
sg9
g17
sg10
S'dana.gibbs@enron.com'
p227
sg12
I461912
sg13
F0.0
sg14
g17
sg15
I23
sg16
g17
sg18
I12
sg19
g17
sg20
g17
sg21
g17
sg22
I2218275
sg23
I0
sg24
I0
sg25
g17
sg26
g17
sg27
I966522
sg28
F0.0
sg29
I2218275
saa(lp228
S'GILLIS JOHN'
p229
a(dp230
g5
g17
sg6
g17
sg7
g17
sg8
I00
sg9
g17
sg10
g17
sg12
g17
sg13
F0.0
sg14
g17
sg15
g17
sg16
g17
sg18
g17
sg19
g17
sg20
g17
sg21
g17
sg22
I85641
sg23
g17
sg24
g17
sg25
I75838
sg26
g17
sg27
g17
sg28
F0.0
sg29
I9803
saa(lp231
S'GLISAN JR BEN F'
p232
a(dp233
g5
I873
sg6
g17
sg7
I125978
sg8
I01
sg9
g17
sg10
S'ben.glisan@enron.com'
p234
sg12
I71023
sg13
F0.05956471935853379
sg14
g17
sg15
I874
sg16
g17
sg18
I16
sg19
I200308
sg20
g17
sg21
I600000
sg22
I778546
sg23
I52
sg24
I6
sg25
I393818
sg26
I274975
sg27
I1272284
sg28
F0.375
sg29
I384728
saa(lp235
S'GOLD JOSEPH'
p236
a(dp237
g5
g17
sg6
g17
sg7
g17
sg8
I00
sg9
g17
sg10
S'joe.gold@enron.com'
p238
sg12
I304805
sg13
F0.0
sg14
g17
sg15
g17
sg16
g17
sg18
g17
sg19
I819288
sg20
g17
sg21
I750000
sg22
I877611
sg23
g17
sg24
g17
sg25
I441096
sg26
I272880
sg27
I2146973
sg28
F0.0
sg29
I436515
saa(lp239
S'GRAMM WENDY L'
p240
a(dp241
g5
g17
sg6
g17
sg7
g17
sg8
I00
sg9
g17
sg10
g17
sg12
g17
sg13
F0.0
sg14
g17
sg15
g17
sg16
g17
sg18
g17
sg19
g17
sg20
I119292
sg21
g17
sg22
g17
sg23
g17
sg24
g17
sg25
g17
sg26
g17
sg27
I119292
sg28
F0.0
sg29
g17
saa(lp242
S'GRAY RODNEY'
p243
a(dp244
g5
g17
sg6
I93585
sg7
g17
sg8
I00
sg9
g17
sg10
g17
sg12
I365625
sg13
F0.0
sg14
g17
sg15
g17
sg16
g17
sg18
g17
sg19
I680833
sg20
g17
sg21
g17
sg22
g17
sg23
g17
sg24
g17
sg25
g17
sg26
I6615
sg27
I1146658
sg28
F0.0
sg29
g17
saa(lp245
S'HAEDICKE MARK E'
p246
a(dp247
g5
I4009
sg6
I2157527
sg7
I76169
sg8
I00
sg9
I-934484
sg10
S'mark.haedicke@enron.com'
p248
sg12
I983346
sg13
F0.04489897730107259
sg14
I-329825
sg15
I1847
sg16
g17
sg18
I1941
sg19
I52382
sg20
g17
sg21
I1150000
sg22
I803094
sg23
I180
sg24
I61
sg25
I524169
sg26
I374125
sg27
I3859065
sg28
F0.03142709943328181
sg29
I608750
saa(lp249
S'HANNON KEVIN P'
p250
a(dp251
g5
I1045
sg6
g17
sg7
I34039
sg8
I01
sg9
I-3117011
sg10
S'kevin.hannon@enron.com'
p252
sg12
I1617011
sg13
F0.03062200956937799
sg14
g17
sg15
I1035
sg16
g17
sg18
I32
sg19
I11350
sg20
g17
sg21
I1500000
sg22
I6391065
sg23
I32
sg24
I21
sg25
I853064
sg26
I243293
sg27
I288682
sg28
F0.65625
sg29
I5538001
saa(lp253
S'HAUG DAVID L'
p254
a(dp255
g5
I573
sg6
g17
sg7
I475
sg8
I00
sg9
g17
sg10
S'david.haug@enron.com'
p256
sg12
g17
sg13
F0.006980802792321117
sg14
g17
sg15
I471
sg16
g17
sg18
I19
sg19
g17
sg20
g17
sg21
g17
sg22
I2217299
sg23
I4
sg24
I7
sg25
I2217299
sg26
g17
sg27
I475
sg28
F0.3684210526315789
sg29
g17
saa(lp257
S'HAYES ROBERT E'
p258
a(dp259
g5
I504
sg6
I7961
sg7
g17
sg8
I00
sg9
g17
sg10
S'robert.hayes@enron.com'
p260
sg12
g17
sg13
F0.031746031746031744
sg14
g17
sg15
I50
sg16
g17
sg18
I12
sg19
g17
sg20
g17
sg21
g17
sg22
I151418
sg23
I16
sg24
I0
sg25
I151418
sg26
g17
sg27
I7961
sg28
F0.0
sg29
g17
saa(lp261
S'HAYSLETT RODERICK J'
p262
a(dp263
g5
I2649
sg6
g17
sg7
g17
sg8
I00
sg9
g17
sg10
S'rod.hayslett@enron.com'
p264
sg12
g17
sg13
F0.01321253303133258
sg14
g17
sg15
I571
sg16
g17
sg18
I1061
sg19
g17
sg20
g17
sg21
g17
sg22
I346663
sg23
I35
sg24
I38
sg25
I346663
sg26
g17
sg27
g17
sg28
F0.03581526861451461
sg29
g17
saa(lp265
S'HERMANN ROBERT J'
p266
a(dp267
g5
g17
sg6
g17
sg7
I48357
sg8
I00
sg9
I-280000
sg10
S'robert.hermann@enron.com'
p268
sg12
I150000
sg13
F0.0
sg14
g17
sg15
g17
sg16
g17
sg18
g17
sg19
I416441
sg20
g17
sg21
I700000
sg22
I668132
sg23
g17
sg24
g17
sg25
I480632
sg26
I262663
sg27
I1297461
sg28
F0.0
sg29
I187500
saa(lp269
S'HICKERSON GARY J'
p270
a(dp271
g5
I1320
sg6
g17
sg7
I98849
sg8
I00
sg9
g17
sg10
S'gary.hickerson@enron.com'
p272
sg12
I69223
sg13
F0.030303030303030304
sg14
g17
sg15
I900
sg16
g17
sg18
I27
sg19
I1936
sg20
g17
sg21
I1700000
sg22
I441096
sg23
I40
sg24
I1
sg25
I441096
sg26
I211788
sg27
I2081796
sg28
F0.037037037037037035
sg29
g17
saa(lp273
S'HIRKO JOSEPH'
p274
a(dp275
g5
g17
sg6
I10259
sg7
I77978
sg8
I01
sg9
g17
sg10
S'joe.hirko@enron.com'
p276
sg12
g17
sg13
F0.0
sg14
g17
sg15
g17
sg16
g17
sg18
g17
sg19
I2856
sg20
g17
sg21
g17
sg22
I30766064
sg23
g17
sg24
g17
sg25
g17
sg26
g17
sg27
I91093
sg28
F0.0
sg29
I30766064
saa(lp277
S'HORTON STANLEY C'
p278
a(dp279
g5
I2350
sg6
I3131860
sg7
g17
sg8
I00
sg9
g17
sg10
S'stanley.horton@enron.com'
p280
sg12
g17
sg13
F0.01872340425531915
sg14
g17
sg15
I1074
sg16
g17
sg18
I1073
sg19
g17
sg20
g17
sg21
g17
sg22
I7256648
sg23
I44
sg24
I15
sg25
I2046079
sg26
g17
sg27
I3131860
sg28
F0.013979496738117428
sg29
I5210569
saa(lp281
S'HUGHES JAMES A'
p282
a(dp283
g5
I719
sg6
g17
sg7
g17
sg8
I00
sg9
g17
sg10
S'james.hughes@enron.com'
p284
sg12
g17
sg13
F0.048678720445062586
sg14
g17
sg15
I589
sg16
g17
sg18
I34
sg19
g17
sg20
g17
sg21
g17
sg22
I1118394
sg23
I35
sg24
I5
sg25
I363428
sg26
g17
sg27
g17
sg28
F0.14705882352941177
sg29
I754966
saa(lp285
S'HUMPHREY GENE E'
p286
a(dp287
g5
I128
sg6
I2964506
sg7
I4994
sg8
I00
sg9
g17
sg10
S'gene.humphrey@enron.com'
p288
sg12
g17
sg13
F0.078125
sg14
g17
sg15
I119
sg16
g17
sg18
I17
sg19
g17
sg20
g17
sg21
g17
sg22
I2282768
sg23
I10
sg24
I17
sg25
g17
sg26
I130724
sg27
I3100224
sg28
F1.0
sg29
I2282768
saa(lp289
S'IZZO LAWRENCE L'
p290
a(dp291
g5
I496
sg6
g17
sg7
I28093
sg8
I00
sg9
g17
sg10
S'larry.izzo@enron.com'
p292
sg12
I312500
sg13
F0.056451612903225805
sg14
g17
sg15
I437
sg16
g17
sg18
I19
sg19
I1553729
sg20
g17
sg21
g17
sg22
I5819980
sg23
I28
sg24
I5
sg25
I3654808
sg26
I85274
sg27
I1979596
sg28
F0.2631578947368421
sg29
I2165172
saa(lp293
S'JACKSON CHARLENE R'
p294
a(dp295
g5
I258
sg6
g17
sg7
I10181
sg8
I00
sg9
g17
sg10
S'charlene.jackson@enron.com'
p296
sg12
g17
sg13
F0.09689922480620156
sg14
g17
sg15
I117
sg16
g17
sg18
I56
sg19
I2435
sg20
g17
sg21
I250000
sg22
I725735
sg23
I25
sg24
I19
sg25
I540672
sg26
I288558
sg27
I551174
sg28
F0.3392857142857143
sg29
I185063
saa(lp297
S'JAEDICKE ROBERT'
p298
a(dp299
g5
g17
sg6
g17
sg7
g17
sg8
I00
sg9
I-25000
sg10
g17
sg12
g17
sg13
F0.0
sg14
I-44093
sg15
g17
sg16
g17
sg18
g17
sg19
g17
sg20
I108750
sg21
g17
sg22
I431750
sg23
g17
sg24
g17
sg25
I44093
sg26
g17
sg27
I83750
sg28
F0.0
sg29
I431750
saa(lp300
S'KAMINSKI WINCENTY J'
p301
a(dp302
g5
I4607
sg6
g17
sg7
I83585
sg8
I00
sg9
g17
sg10
S'vince.kaminski@enron.com'
p303
sg12
I323466
sg13
F0.008899500759713479
sg14
g17
sg15
I583
sg16
g17
sg18
I14368
sg19
I4669
sg20
g17
sg21
I400000
sg22
I976037
sg23
I41
sg24
I171
sg25
I126027
sg26
I275101
sg27
I1086821
sg28
F0.011901447661469933
sg29
I850010
saa(lp304
S'KEAN STEVEN J'
p305
a(dp306
g5
I12754
sg6
g17
sg7
I41953
sg8
I00
sg9
g17
sg10
S'steven.kean@enron.com'
p307
sg12
I300000
sg13
F0.010976948408342482
sg14
g17
sg15
I3639
sg16
g17
sg18
I6759
sg19
I1231
sg20
g17
sg21
I1000000
sg22
I6153642
sg23
I140
sg24
I387
sg25
I4131594
sg26
I404338
sg27
I1747522
sg28
F0.05725699067909454
sg29
I2022048
saa(lp308
S'KISHKILL JOSEPH G'
p309
a(dp310
g5
g17
sg6
g17
sg7
I116335
sg8
I00
sg9
I-51042
sg10
S'joe.kishkill@enron.com'
p311
sg12
g17
sg13
F0.0
sg14
g17
sg15
g17
sg16
g17
sg18
g17
sg19
I465357
sg20
g17
sg21
g17
sg22
I1034346
sg23
g17
sg24
g17
sg25
I1034346
sg26
I174246
sg27
I704896
sg28
F0.0
sg29
g17
saa(lp312
S'KITCHEN LOUISE'
p313
a(dp314
g5
I8305
sg6
g17
sg7
I5774
sg8
I00
sg9
g17
sg10
S'louise.kitchen@enron.com'
p315
sg12
g17
sg13
F0.030222757375075255
sg14
g17
sg15
I3669
sg16
g17
sg18
I1728
sg19
I93925
sg20
g17
sg21
I3100000
sg22
I547143
sg23
I251
sg24
I194
sg25
I466101
sg26
I271442
sg27
I3471141
sg28
F0.11226851851851852
sg29
I81042
saa(lp316
S'KOENIG MARK E'
p317
a(dp318
g5
I2374
sg6
g17
sg7
I127017
sg8
I01
sg9
g17
sg10
S'mark.koenig@enron.com'
p319
sg12
I300000
sg13
F0.02232518955349621
sg14
g17
sg15
I2271
sg16
g17
sg18
I61
sg19
I150458
sg20
g17
sg21
I700000
sg22
I1920055
sg23
I53
sg24
I15
sg25
I1248318
sg26
I309946
sg27
I1587421
sg28
F0.2459016393442623
sg29
I671737
saa(lp320
S'KOPPER MICHAEL J'
p321
a(dp322
g5
g17
sg6
g17
sg7
I118134
sg8
I01
sg9
g17
sg10
S'michael.kopper@enron.com'
p323
sg12
I602671
sg13
F0.0
sg14
g17
sg15
g17
sg16
g17
sg18
g17
sg19
I907502
sg20
g17
sg21
I800000
sg22
I985032
sg23
g17
sg24
g17
sg25
I985032
sg26
I224305
sg27
I2652612
sg28
F0.0
sg29
g17
saa(lp324
S'LAVORATO JOHN J'
p325
a(dp326
g5
I7259
sg6
g17
sg7
I49537
sg8
I00
sg9
g17
sg10
S'john.lavorato@enron.com'
p327
sg12
I2035380
sg13
F0.07273729163796666
sg14
g17
sg15
I3962
sg16
g17
sg18
I2585
sg19
I1552
sg20
g17
sg21
I8000000
sg22
I5167144
sg23
I528
sg24
I411
sg25
I1008149
sg26
I339288
sg27
I10425757
sg28
F0.15899419729206962
sg29
I4158995
saa(lp328
S'LAY KENNETH L'
p329
a(dp330
g5
I4273
sg6
I202911
sg7
I99832
sg8
I01
sg9
I-300000
sg10
S'kenneth.lay@enron.com'
p331
sg12
I3600000
sg13
F0.028785396676807865
sg14
g17
sg15
I2411
sg16
I81525000
sg18
I36
sg19
I10359729
sg20
g17
sg21
I7000000
sg22
I49110078
sg23
I123
sg24
I16
sg25
I14761694
sg26
I1072321
sg27
I103559793
sg28
F0.4444444444444444
sg29
I34348384
saa(lp332
S'LEFF DANIEL P'
p333
a(dp334
g5
I2822
sg6
g17
sg7
g17
sg8
I00
sg9
g17
sg10
S'dan.leff@enron.com'
p335
sg12
I1387399
sg13
F0.02374202693125443
sg14
g17
sg15
I2672
sg16
g17
sg18
I63
sg19
I3083
sg20
g17
sg21
I1000000
sg22
I360528
sg23
I67
sg24
I14
sg25
I360528
sg26
I273746
sg27
I2664228
sg28
F0.2222222222222222
sg29
g17
saa(lp336
S'LEMAISTRE CHARLES'
p337
a(dp338
g5
g17
sg6
g17
sg7
g17
sg8
I00
sg9
I-25000
sg10
g17
sg12
g17
sg13
F0.0
sg14
g17
sg15
g17
sg16
g17
sg18
g17
sg19
g17
sg20
I112492
sg21
g17
sg22
I412878
sg23
g17
sg24
g17
sg25
g17
sg26
g17
sg27
I87492
sg28
F0.0
sg29
I412878
saa(lp339
S'LEWIS RICHARD'
p340
a(dp341
g5
I952
sg6
g17
sg7
g17
sg8
I00
sg9
g17
sg10
S'richard.lewis@enron.com'
p342
sg12
g17
sg13
F0.01050420168067227
sg14
g17
sg15
I739
sg16
g17
sg18
I26
sg19
g17
sg20
g17
sg21
g17
sg22
I850477
sg23
I10
sg24
I0
sg25
g17
sg26
g17
sg27
g17
sg28
F0.0
sg29
I850477
saa(lp343
S'LINDHOLM TOD A'
p344
a(dp345
g5
g17
sg6
I204075
sg7
I57727
sg8
I00
sg9
g17
sg10
S'tod.lindholm@enron.com'
p346
sg12
I175000
sg13
F0.0
sg14
g17
sg15
g17
sg16
g17
sg18
g17
sg19
I2630
sg20
g17
sg21
I200000
sg22
I3064208
sg23
g17
sg24
g17
sg25
I514847
sg26
I236457
sg27
I875889
sg28
F0.0
sg29
I2549361
saa(lp347
S'LOWRY CHARLES P'
p348
a(dp349
g5
g17
sg6
g17
sg7
g17
sg8
I00
sg9
g17
sg10
g17
sg12
g17
sg13
F0.0
sg14
I-153686
sg15
g17
sg16
g17
sg18
g17
sg19
g17
sg20
g17
sg21
g17
sg22
I372205
sg23
g17
sg24
g17
sg25
I153686
sg26
g17
sg27
g17
sg28
F0.0
sg29
I372205
saa(lp350
S'MARTIN AMANDA K'
p351
a(dp352
g5
I1522
sg6
I85430
sg7
I8211
sg8
I00
sg9
g17
sg10
S'a..martin@enron.com'
p353
sg12
I5145434
sg13
F0.005256241787122208
sg14
g17
sg15
I477
sg16
g17
sg18
I230
sg19
I2818454
sg20
g17
sg21
g17
sg22
I2070306
sg23
I8
sg24
I0
sg25
g17
sg26
I349487
sg27
I8407016
sg28
F0.0
sg29
I2070306
saa(lp354
S'MCCARTY DANNY J'
p355
a(dp356
g5
I1433
sg6
g17
sg7
g17
sg8
I00
sg9
g17
sg10
S'danny.mccarty@enron.com'
p357
sg12
g17
sg13
F0.017445917655268667
sg14
g17
sg15
I508
sg16
g17
sg18
I215
sg19
g17
sg20
g17
sg21
g17
sg22
I758931
sg23
I25
sg24
I2
sg25
I94556
sg26
g17
sg27
g17
sg28
F0.009302325581395349
sg29
I664375
saa(lp358
S'MCCLELLAN GEORGE'
p359
a(dp360
g5
I1744
sg6
g17
sg7
I228763
sg8
I00
sg9
I-125000
sg10
S'george.mcclellan@enron.com'
p361
sg12
g17
sg13
F0.02981651376146789
sg14
g17
sg15
I1469
sg16
g17
sg18
I49
sg19
I51587
sg20
g17
sg21
I900000
sg22
I947861
sg23
I52
sg24
I0
sg25
I441096
sg26
I263413
sg27
I1318763
sg28
F0.0
sg29
I506765
saa(lp362
S'MCCONNELL MICHAEL S'
p363
a(dp364
g5
I3329
sg6
g17
sg7
I81364
sg8
I00
sg9
g17
sg10
S'mike.mcconnell@enron.com'
p365
sg12
I554422
sg13
F0.02763592670471613
sg14
g17
sg15
I2189
sg16
g17
sg18
I2742
sg19
I540
sg20
g17
sg21
I1100000
sg22
I3101279
sg23
I92
sg24
I194
sg25
I1478269
sg26
I365038
sg27
I2101364
sg28
F0.07075127644055434
sg29
I1623010
saa(lp366
S'MCDONALD REBECCA'
p367
a(dp368
g5
I894
sg6
g17
sg7
g17
sg8
I00
sg9
g17
sg10
S'rebecca.mcdonald@enron.com'
p369
sg12
g17
sg13
F0.06040268456375839
sg14
g17
sg15
I720
sg16
g17
sg18
I13
sg19
g17
sg20
g17
sg21
g17
sg22
I1691366
sg23
I54
sg24
I1
sg25
I934065
sg26
g17
sg27
g17
sg28
F0.07692307692307693
sg29
I757301
saa(lp370
S'MCMAHON JEFFREY'
p371
a(dp372
g5
I2355
sg6
g17
sg7
I137108
sg8
I00
sg9
g17
sg10
S'jeffrey.mcmahon@enron.com'
p373
sg12
I694862
sg13
F0.024628450106157114
sg14
g17
sg15
I2228
sg16
g17
sg18
I48
sg19
I297353
sg20
g17
sg21
I2600000
sg22
I1662855
sg23
I58
sg24
I26
sg25
I558801
sg26
I370448
sg27
I4099771
sg28
F0.5416666666666666
sg29
I1104054
saa(lp374
S'MENDELSOHN JOHN'
p375
a(dp376
g5
g17
sg6
g17
sg7
I148
sg8
I00
sg9
I-103750
sg10
g17
sg12
g17
sg13
F0.0
sg14
g17
sg15
g17
sg16
g17
sg18
g17
sg19
g17
sg20
I103750
sg21
g17
sg22
g17
sg23
g17
sg24
g17
sg25
g17
sg26
g17
sg27
I148
sg28
F0.0
sg29
g17
saa(lp377
S'METTS MARK'
p378
a(dp379
g5
I807
sg6
g17
sg7
I94299
sg8
I00
sg9
g17
sg10
S'mark.metts@enron.com'
p380
sg12
g17
sg13
F0.04708798017348203
sg14
g17
sg15
I702
sg16
g17
sg18
I29
sg19
I1740
sg20
g17
sg21
I600000
sg22
I585062
sg23
I38
sg24
I1
sg25
I585062
sg26
I365788
sg27
I1061827
sg28
F0.034482758620689655
sg29
g17
saa(lp381
S'MEYER JEROME J'
p382
a(dp383
g5
g17
sg6
g17
sg7
I2151
sg8
I00
sg9
I-38346
sg10
g17
sg12
g17
sg13
F0.0
sg14
g17
sg15
g17
sg16
g17
sg18
g17
sg19
g17
sg20
I38346
sg21
g17
sg22
g17
sg23
g17
sg24
g17
sg25
g17
sg26
g17
sg27
I2151
sg28
F0.0
sg29
g17
saa(lp384
S'MEYER ROCKFORD G'
p385
a(dp386
g5
I232
sg6
I1848227
sg7
g17
sg8
I00
sg9
g17
sg10
S'rockford.meyer@enron.com'
p387
sg12
g17
sg13
F0.0
sg14
g17
sg15
I22
sg16
g17
sg18
I28
sg19
g17
sg20
g17
sg21
g17
sg22
I955873
sg23
I0
sg24
I0
sg25
I462384
sg26
g17
sg27
I1848227
sg28
F0.0
sg29
I493489
saa(lp388
S'MORAN MICHAEL P'
p389
a(dp390
g5
I672
sg6
g17
sg7
g17
sg8
I00
sg9
g17
sg10
S'michael.moran@enron.com'
p391
sg12
g17
sg13
F0.0
sg14
g17
sg15
I127
sg16
g17
sg18
I19
sg19
g17
sg20
g17
sg21
g17
sg22
I221141
sg23
I0
sg24
I0
sg25
I161602
sg26
g17
sg27
g17
sg28
F0.0
sg29
I59539
saa(lp392
S'MORDAUNT KRISTINA M'
p393
a(dp394
g5
g17
sg6
g17
sg7
I35018
sg8
I00
sg9
g17
sg10
S'kristina.mordaunt@enron.com'
p395
sg12
g17
sg13
F0.0
sg14
g17
sg15
g17
sg16
g17
sg18
g17
sg19
I1411
sg20
g17
sg21
I325000
sg22
I208510
sg23
g17
sg24
g17
sg25
I208510
sg26
I267093
sg27
I628522
sg28
F0.0
sg29
g17
saa(lp396
S'MULLER MARK S'
p397
a(dp398
g5
I136
sg6
I842924
sg7
g17
sg8
I00
sg9
I-719000
sg10
S's..muller@enron.com'
p399
sg12
I1725545
sg13
F0.08823529411764706
sg14
g17
sg15
I114
sg16
g17
sg18
I16
sg19
I947
sg20
g17
sg21
I1100000
sg22
I1416848
sg23
I12
sg24
I0
sg25
I360528
sg26
I251654
sg27
I3202070
sg28
F0.0
sg29
I1056320
saa(lp400
S'MURRAY JULIA H'
p401
a(dp402
g5
I2192
sg6
g17
sg7
I57580
sg8
I00
sg9
g17
sg10
S'julia.murray@enron.com'
p403
sg12
I125000
sg13
F0.005018248175182482
sg14
g17
sg15
I395
sg16
g17
sg18
I45
sg19
I330
sg20
g17
sg21
I400000
sg22
I597461
sg23
I11
sg24
I2
sg25
I196983
sg26
I229284
sg27
I812194
sg28
F0.044444444444444446
sg29
I400478
saa(lp404
S'NOLES JAMES L'
p405
a(dp406
g5
g17
sg6
I774401
sg7
g17
sg8
I00
sg9
g17
sg10
g17
sg12
g17
sg13
F0.0
sg14
I-94556
sg15
g17
sg16
g17
sg18
g17
sg19
g17
sg20
g17
sg21
g17
sg22
I368705
sg23
g17
sg24
g17
sg25
I463261
sg26
g17
sg27
I774401
sg28
F0.0
sg29
g17
saa(lp407
S'OLSON CINDY K'
p408
a(dp409
g5
I1184
sg6
I77716
sg7
I63791
sg8
I00
sg9
g17
sg10
S'cindy.olson@enron.com'
p410
sg12
I100000
sg13
F0.016891891891891893
sg14
g17
sg15
I856
sg16
g17
sg18
I52
sg19
I972
sg20
g17
sg21
I750000
sg22
I2606763
sg23
I20
sg24
I15
sg25
I969729
sg26
I329078
sg27
I1321557
sg28
F0.28846153846153844
sg29
I1637034
saa(lp411
S'OVERDYKE JR JERE C'
p412
a(dp413
g5
g17
sg6
g17
sg7
I18834
sg8
I00
sg9
g17
sg10
S'jere.overdyke@enron.com'
p414
sg12
I135836
sg13
F0.0
sg14
g17
sg15
g17
sg16
g17
sg18
g17
sg19
I176
sg20
g17
sg21
g17
sg22
I7307594
sg23
g17
sg24
g17
sg25
I2041016
sg26
I94941
sg27
I249787
sg28
F0.0
sg29
I5266578
saa(lp415
S'PAI LOU L'
p416
a(dp417
g5
g17
sg6
g17
sg7
I32047
sg8
I00
sg9
g17
sg10
S'lou.pai@enron.com'
p418
sg12
g17
sg13
F0.0
sg14
g17
sg15
g17
sg16
g17
sg18
g17
sg19
I1829457
sg20
g17
sg21
I1000000
sg22
I23817930
sg23
g17
sg24
g17
sg25
I8453763
sg26
I261879
sg27
I3123383
sg28
F0.0
sg29
I15364167
saa(lp419
S'PEREIRA PAULO V. FERRAZ'
p420
a(dp421
g5
g17
sg6
g17
sg7
I27942
sg8
I00
sg9
I-101250
sg10
g17
sg12
g17
sg13
F0.0
sg14
g17
sg15
g17
sg16
g17
sg18
g17
sg19
g17
sg20
I101250
sg21
g17
sg22
g17
sg23
g17
sg24
g17
sg25
g17
sg26
g17
sg27
I27942
sg28
F0.0
sg29
g17
saa(lp422
S'PICKERING MARK R'
p423
a(dp424
g5
I898
sg6
g17
sg7
I31653
sg8
I00
sg9
g17
sg10
S'mark.pickering@enron.com'
p425
sg12
g17
sg13
F0.0077951002227171495
sg14
g17
sg15
I728
sg16
I400000
sg18
I67
sg19
g17
sg20
g17
sg21
I300000
sg22
I28798
sg23
I7
sg24
I0
sg25
g17
sg26
I655037
sg27
I1386690
sg28
F0.0
sg29
I28798
saa(lp426
S'PIPER GREGORY F'
p427
a(dp428
g5
I1238
sg6
I1130036
sg7
I43057
sg8
I00
sg9
I-33333
sg10
S'greg.piper@enron.com'
p429
sg12
g17
sg13
F0.049273021001615507
sg14
I-409554
sg15
I742
sg16
g17
sg18
I222
sg19
I778
sg20
g17
sg21
I400000
sg22
I880290
sg23
I61
sg24
I48
sg25
I409554
sg26
I197091
sg27
I1737629
sg28
F0.21621621621621623
sg29
I880290
saa(lp430
S'PIRO JIM'
p431
a(dp432
g5
I58
sg6
g17
sg7
g17
sg8
I00
sg9
g17
sg10
S'jim.piro@enron.com'
p433
sg12
g17
sg13
F0.0
sg14
g17
sg15
I3
sg16
g17
sg18
I16
sg19
g17
sg20
g17
sg21
g17
sg22
I47304
sg23
I0
sg24
I1
sg25
I47304
sg26
g17
sg27
g17
sg28
F0.0625
sg29
g17
saa(lp434
S'POWERS WILLIAM'
p435
a(dp436
g5
I653
sg6
g17
sg7
g17
sg8
I00
sg9
I-17500
sg10
S'ken.powers@enron.com'
p437
sg12
g17
sg13
F0.0
sg14
g17
sg15
I12
sg16
g17
sg18
I26
sg19
g17
sg20
I17500
sg21
g17
sg22
g17
sg23
I0
sg24
I0
sg25
g17
sg26
g17
sg27
g17
sg28
F0.0
sg29
g17
saa(lp438
S'PRENTICE JAMES'
p439
a(dp440
g5
g17
sg6
I564348
sg7
g17
sg8
I00
sg9
g17
sg10
S'james.prentice@enron.com'
p441
sg12
g17
sg13
F0.0
sg14
g17
sg15
g17
sg16
g17
sg18
g17
sg19
g17
sg20
g17
sg21
g17
sg22
I1095040
sg23
g17
sg24
g17
sg25
I208809
sg26
g17
sg27
I564348
sg28
F0.0
sg29
I886231
saa(lp442
S'REDMOND BRIAN L'
p443
a(dp444
g5
I1671
sg6
g17
sg7
I14689
sg8
I00
sg9
g17
sg10
S'brian.redmond@enron.com'
p445
sg12
g17
sg13
F0.12208258527827648
sg14
g17
sg15
I1063
sg16
g17
sg18
I221
sg19
g17
sg20
g17
sg21
g17
sg22
I7890324
sg23
I204
sg24
I49
sg25
I381285
sg26
I96840
sg27
I111529
sg28
F0.22171945701357465
sg29
I7509039
saa(lp446
S'REYNOLDS LAWRENCE'
p447
a(dp448
g5
g17
sg6
I51365
sg7
I8409
sg8
I00
sg9
I-200000
sg10
g17
sg12
I156250
sg13
F0.0
sg14
I-140264
sg15
g17
sg16
g17
sg18
g17
sg19
I202052
sg20
g17
sg21
I100000
sg22
I4221891
sg23
g17
sg24
g17
sg25
I201483
sg26
I76399
sg27
I394475
sg28
F0.0
sg29
I4160672
saa(lp449
S'RICE KENNETH D'
p450
a(dp451
g5
I905
sg6
g17
sg7
I46950
sg8
I01
sg9
I-3504386
sg10
S'ken.rice@enron.com'
p452
sg12
I1617011
sg13
F0.04640883977900553
sg14
g17
sg15
I864
sg16
g17
sg18
I18
sg19
I174839
sg20
g17
sg21
I1750000
sg22
I22542539
sg23
I42
sg24
I4
sg25
I2748364
sg26
I420636
sg27
I505050
sg28
F0.2222222222222222
sg29
I19794175
saa(lp453
S'RIEKER PAULA H'
p454
a(dp455
g5
I1328
sg6
I214678
sg7
I33271
sg8
I01
sg9
I-100000
sg10
S'paula.rieker@enron.com'
p456
sg12
g17
sg13
F0.02635542168674699
sg14
g17
sg15
I1258
sg16
g17
sg18
I82
sg19
I1950
sg20
g17
sg21
I700000
sg22
I1918887
sg23
I35
sg24
I48
sg25
I283649
sg26
I249201
sg27
I1099100
sg28
F0.5853658536585366
sg29
I1635238
saa(lp457
S'SAVAGE FRANK'
p458
a(dp459
g5
g17
sg6
g17
sg7
g17
sg8
I00
sg9
I-121284
sg10
g17
sg12
g17
sg13
F0.0
sg14
g17
sg15
g17
sg16
g17
sg18
g17
sg19
g17
sg20
I125034
sg21
g17
sg22
g17
sg23
g17
sg24
g17
sg25
g17
sg26
g17
sg27
I3750
sg28
F0.0
sg29
g17
saa(lp460
S'SCRIMSHAW MATTHEW'
p461
a(dp462
g5
g17
sg6
g17
sg7
g17
sg8
I00
sg9
g17
sg10
S'matthew.scrimshaw@enron.com'
p463
sg12
g17
sg13
F0.0
sg14
g17
sg15
g17
sg16
g17
sg18
g17
sg19
g17
sg20
g17
sg21
g17
sg22
I759557
sg23
g17
sg24
g17
sg25
g17
sg26
g17
sg27
g17
sg28
F0.0
sg29
I759557
saa(lp464
S'SHANKMAN JEFFREY A'
p465
a(dp466
g5
I3221
sg6
g17
sg7
I178979
sg8
I00
sg9
g17
sg10
S'jeffrey.shankman@enron.com'
p467
sg12
I554422
sg13
F0.029183483390251473
sg14
g17
sg15
I1730
sg16
g17
sg18
I2681
sg19
I1191
sg20
g17
sg21
I2000000
sg22
I2072035
sg23
I94
sg24
I83
sg25
I630137
sg26
I304110
sg27
I3038702
sg28
F0.030958597538232
sg29
I1441898
saa(lp468
S'SHAPIRO RICHARD S'
p469
a(dp470
g5
I15149
sg6
g17
sg7
I137767
sg8
I00
sg9
g17
sg10
S'richard.shapiro@enron.com'
p471
sg12
g17
sg13
F0.0048848108786058485
sg14
g17
sg15
I4527
sg16
g17
sg18
I1215
sg19
I705
sg20
g17
sg21
I650000
sg22
I987001
sg23
I74
sg24
I65
sg25
I379164
sg26
I269076
sg27
I1057548
sg28
F0.053497942386831275
sg29
I607837
saa(lp472
S'SHARP VICTORIA T'
p473
a(dp474
g5
I3136
sg6
I187469
sg7
I116337
sg8
I00
sg9
g17
sg10
S'vicki.sharp@enron.com'
p475
sg12
I422158
sg13
F0.007653061224489796
sg14
g17
sg15
I2477
sg16
g17
sg18
I136
sg19
I2401
sg20
g17
sg21
I600000
sg22
I494136
sg23
I24
sg24
I6
sg25
I213063
sg26
I248146
sg27
I1576511
sg28
F0.04411764705882353
sg29
I281073
saa(lp476
S'SHELBY REX'
p477
a(dp478
g5
I225
sg6
g17
sg7
I22884
sg8
I01
sg9
I-4167
sg10
S'rex.shelby@enron.com'
p479
sg12
g17
sg13
F0.057777777777777775
sg14
g17
sg15
I91
sg16
g17
sg18
I39
sg19
I1573324
sg20
g17
sg21
I200000
sg22
I2493616
sg23
I13
sg24
I14
sg25
I869220
sg26
I211844
sg27
I2003885
sg28
F0.358974358974359
sg29
I1624396
saa(lp480
S'SHERRICK JEFFREY B'
p481
a(dp482
g5
I613
sg6
g17
sg7
g17
sg8
I00
sg9
g17
sg10
S'jeffrey.sherrick@enron.com'
p483
sg12
g17
sg13
F0.0636215334420881
sg14
g17
sg15
I583
sg16
g17
sg18
I25
sg19
g17
sg20
g17
sg21
g17
sg22
I1832468
sg23
I39
sg24
I18
sg25
I405999
sg26
g17
sg27
g17
sg28
F0.72
sg29
I1426469
saa(lp484
S'SHERRIFF JOHN R'
p485
a(dp486
g5
I3187
sg6
g17
sg7
g17
sg8
I00
sg9
g17
sg10
S'john.sherriff@enron.com'
p487
sg12
I554422
sg13
F0.008785691873235017
sg14
g17
sg15
I2103
sg16
g17
sg18
I92
sg19
I1852186
sg20
g17
sg21
I1500000
sg22
I3128982
sg23
I28
sg24
I23
sg25
I1293424
sg26
I428780
sg27
I4335388
sg28
F0.25
sg29
I1835558
saa(lp488
S'SKILLING JEFFREY K'
p489
a(dp490
g5
I3627
sg6
g17
sg7
I29336
sg8
I01
sg9
g17
sg10
S'jeff.skilling@enron.com'
p491
sg12
I1920000
sg13
F0.0242624758753791
sg14
g17
sg15
I2042
sg16
g17
sg18
I108
sg19
I22122
sg20
g17
sg21
I5600000
sg22
I26093672
sg23
I88
sg24
I30
sg25
I6843672
sg26
I1111258
sg27
I8682716
sg28
F0.2777777777777778
sg29
I19250000
saa(lp492
S'STABLER FRANK'
p493
a(dp494
g5
g17
sg6
g17
sg7
I16514
sg8
I00
sg9
g17
sg10
S'frank.stabler@enron.com'
p495
sg12
g17
sg13
F0.0
sg14
g17
sg15
g17
sg16
g17
sg18
g17
sg19
I356071
sg20
g17
sg21
I500000
sg22
I511734
sg23
g17
sg24
g17
sg25
I511734
sg26
I239502
sg27
I1112087
sg28
F0.0
sg29
g17
saa(lp496
S'SULLIVAN-SHAKLOVITZ COLLEEN'
p497
a(dp498
g5
g17
sg6
I181993
sg7
g17
sg8
I00
sg9
g17
sg10
g17
sg12
I554422
sg13
F0.0
sg14
g17
sg15
g17
sg16
g17
sg18
g17
sg19
I162
sg20
g17
sg21
I100000
sg22
I1362375
sg23
g17
sg24
g17
sg25
g17
sg26
I162779
sg27
I999356
sg28
F0.0
sg29
I1362375
saa(lp499
S'SUNDE MARTIN'
p500
a(dp501
g5
I2647
sg6
g17
sg7
g17
sg8
I00
sg9
g17
sg10
S'marty.sunde@enron.com'
p502
sg12
I476451
sg13
F0.013978088401964487
sg14
g17
sg15
I2565
sg16
g17
sg18
I38
sg19
I111122
sg20
g17
sg21
I700000
sg22
I698920
sg23
I37
sg24
I13
sg25
I698920
sg26
I257486
sg27
I1545059
sg28
F0.34210526315789475
sg29
g17
saa(lp503
S'TAYLOR MITCHELL S'
p504
a(dp505
g5
I533
sg6
I227449
sg7
g17
sg8
I00
sg9
g17
sg10
S'mitchell.taylor@enron.com'
p506
sg12
g17
sg13
F0.0
sg14
g17
sg15
I300
sg16
g17
sg18
I29
sg19
g17
sg20
g17
sg21
I600000
sg22
I3745048
sg23
I0
sg24
I0
sg25
I563798
sg26
I265214
sg27
I1092663
sg28
F0.0
sg29
I3181250
saa(lp507
S'THORN TERENCE H'
p508
a(dp509
g5
I266
sg6
I16586
sg7
I46145
sg8
I00
sg9
g17
sg10
S'terence.thorn@enron.com'
p510
sg12
I200000
sg13
F0.0
sg14
g17
sg15
I73
sg16
g17
sg18
I41
sg19
I426629
sg20
g17
sg21
g17
sg22
I4817796
sg23
I0
sg24
I0
sg25
I365320
sg26
I222093
sg27
I911453
sg28
F0.0
sg29
I4452476
saa(lp511
S'TILNEY ELIZABETH A'
p512
a(dp513
g5
I460
sg6
g17
sg7
g17
sg8
I00
sg9
I-575000
sg10
S'elizabeth.tilney@enron.com'
p514
sg12
I275000
sg13
F0.021739130434782608
sg14
g17
sg15
I379
sg16
g17
sg18
I19
sg19
I152055
sg20
g17
sg21
I300000
sg22
I1168042
sg23
I10
sg24
I11
sg25
I576792
sg26
I247338
sg27
I399393
sg28
F0.5789473684210527
sg29
I591250
saa(lp515
S'UMANOFF ADAM S'
p516
a(dp517
g5
I111
sg6
g17
sg7
I53122
sg8
I00
sg9
g17
sg10
S'adam.umanoff@enron.com'
p518
sg12
g17
sg13
F0.10810810810810811
sg14
g17
sg15
I41
sg16
g17
sg18
I18
sg19
g17
sg20
g17
sg21
I788750
sg22
g17
sg23
I12
sg24
I0
sg25
g17
sg26
I288589
sg27
I1130461
sg28
F0.0
sg29
g17
saa(lp519
S'URQUHART JOHN A'
p520
a(dp521
g5
g17
sg6
g17
sg7
I228656
sg8
I00
sg9
I-36666
sg10
g17
sg12
g17
sg13
F0.0
sg14
g17
sg15
g17
sg16
g17
sg18
g17
sg19
g17
sg20
I36666
sg21
g17
sg22
g17
sg23
g17
sg24
g17
sg25
g17
sg26
g17
sg27
I228656
sg28
F0.0
sg29
g17
saa(lp522
S'WAKEHAM JOHN'
p523
a(dp524
g5
g17
sg6
g17
sg7
I103773
sg8
I00
sg9
g17
sg10
g17
sg12
g17
sg13
F0.0
sg14
g17
sg15
g17
sg16
g17
sg18
g17
sg19
g17
sg20
I109298
sg21
g17
sg22
g17
sg23
g17
sg24
g17
sg25
g17
sg26
g17
sg27
I213071
sg28
F0.0
sg29
g17
saa(lp525
S'WALLS JR ROBERT H'
p526
a(dp527
g5
I671
sg6
g17
sg7
I50936
sg8
I00
sg9
g17
sg10
S'rob.walls@enron.com'
p528
sg12
I540751
sg13
F0.02533532041728763
sg14
g17
sg15
I215
sg16
g17
sg18
I146
sg19
I2
sg20
g17
sg21
I850000
sg22
I5898997
sg23
I17
sg24
I0
sg25
I1552453
sg26
I357091
sg27
I1798780
sg28
F0.0
sg29
I4346544
saa(lp529
S'WALTERS GARETH W'
p530
a(dp531
g5
g17
sg6
I53625
sg7
I33785
sg8
I00
sg9
g17
sg10
g17
sg12
g17
sg13
F0.0
sg14
g17
sg15
g17
sg16
g17
sg18
g17
sg19
g17
sg20
g17
sg21
g17
sg22
I1030329
sg23
g17
sg24
g17
sg25
g17
sg26
g17
sg27
I87410
sg28
F0.0
sg29
I1030329
saa(lp532
S'WASAFF GEORGE'
p533
a(dp534
g5
I400
sg6
I831299
sg7
g17
sg8
I00
sg9
I-583325
sg10
S'george.wasaff@enron.com'
p535
sg12
I200000
sg13
F0.055
sg14
g17
sg15
I337
sg16
g17
sg18
I30
sg19
I1425
sg20
g17
sg21
I325000
sg22
I2056427
sg23
I22
sg24
I7
sg25
I388167
sg26
I259996
sg27
I1034395
sg28
F0.23333333333333334
sg29
I1668260
saa(lp536
S'WESTFAHL RICHARD K'
p537
a(dp538
g5
g17
sg6
g17
sg7
I51870
sg8
I00
sg9
I-10800
sg10
S'dick.westfahl@enron.com'
p539
sg12
I256191
sg13
F0.0
sg14
g17
sg15
g17
sg16
g17
sg18
g17
sg19
I401130
sg20
g17
sg21
g17
sg22
I384930
sg23
g17
sg24
g17
sg25
I384930
sg26
I63744
sg27
I762135
sg28
F0.0
sg29
g17
saa(lp540
S'WHALEY DAVID A'
p541
a(dp542
g5
g17
sg6
g17
sg7
g17
sg8
I00
sg9
g17
sg10
g17
sg12
g17
sg13
F0.0
sg14
g17
sg15
g17
sg16
g17
sg18
g17
sg19
g17
sg20
g17
sg21
g17
sg22
I98718
sg23
g17
sg24
g17
sg25
g17
sg26
g17
sg27
g17
sg28
F0.0
sg29
I98718
saa(lp543
S'WHALLEY LAWRENCE G'
p544
a(dp545
g5
I6019
sg6
g17
sg7
I57838
sg8
I00
sg9
g17
sg10
S'greg.whalley@enron.com'
p546
sg12
I808346
sg13
F0.03090214321315833
sg14
g17
sg15
I3920
sg16
g17
sg18
I556
sg19
I301026
sg20
g17
sg21
I3000000
sg22
I6079137
sg23
I186
sg24
I24
sg25
I2796177
sg26
I510364
sg27
I4677574
sg28
F0.04316546762589928
sg29
I3282960
saa(lp547
S'WHITE JR THOMAS E'
p548
a(dp549
g5
g17
sg6
g17
sg7
I81353
sg8
I00
sg9
g17
sg10
S'thomas.white@enron.com'
p550
sg12
g17
sg13
F0.0
sg14
g17
sg15
g17
sg16
g17
sg18
g17
sg19
I1085463
sg20
g17
sg21
I450000
sg22
I15144123
sg23
g17
sg24
g17
sg25
I13847074
sg26
I317543
sg27
I1934359
sg28
F0.0
sg29
I1297049
saa(lp551
S'WINOKUR JR. HERBERT S'
p552
a(dp553
g5
g17
sg6
g17
sg7
I1413
sg8
I00
sg9
I-25000
sg10
g17
sg12
g17
sg13
F0.0
sg14
g17
sg15
g17
sg16
g17
sg18
g17
sg19
g17
sg20
I108579
sg21
g17
sg22
g17
sg23
g17
sg24
g17
sg25
g17
sg26
g17
sg27
I84992
sg28
F0.0
sg29
g17
saa(lp554
S'WODRASKA JOHN'
p555
a(dp556
g5
g17
sg6
g17
sg7
g17
sg8
I00
sg9
g17
sg10
S'john.wodraska@enron.com'
p557
sg12
g17
sg13
F0.0
sg14
g17
sg15
g17
sg16
g17
sg18
g17
sg19
I189583
sg20
g17
sg21
g17
sg22
g17
sg23
g17
sg24
g17
sg25
g17
sg26
g17
sg27
I189583
sg28
F0.0
sg29
g17
saa(lp558
S'WROBEL BRUCE'
p559
a(dp560
g5
g17
sg6
g17
sg7
g17
sg8
I00
sg9
g17
sg10
g17
sg12
g17
sg13
F0.0
sg14
g17
sg15
g17
sg16
g17
sg18
g17
sg19
g17
sg20
g17
sg21
g17
sg22
I139130
sg23
g17
sg24
g17
sg25
g17
sg26
g17
sg27
g17
sg28
F0.0
sg29
I139130
saa(lp561
S'YEAGER F SCOTT'
p562
a(dp563
g5
g17
sg6
g17
sg7
I53947
sg8
I01
sg9
g17
sg10
S'scott.yeager@enron.com'
p564
sg12
g17
sg13
F0.0
sg14
g17
sg15
g17
sg16
g17
sg18
g17
sg19
I147950
sg20
g17
sg21
g17
sg22
I11884758
sg23
g17
sg24
g17
sg25
I3576206
sg26
I158403
sg27
I360300
sg28
F0.0
sg29
I8308552
saa(lp565
S'YEAP SOON'
p566
a(dp567
g5
g17
sg6
g17
sg7
I55097
sg8
I00
sg9
g17
sg10
g17
sg12
g17
sg13
F0.0
sg14
g17
sg15
g17
sg16
g17
sg18
g17
sg19
g17
sg20
g17
sg21
g17
sg22
I192758
sg23
g17
sg24
g17
sg25
g17
sg26
g17
sg27
I55097
sg28
F0.0
sg29
I192758
saatp568
Rp569
.